WebMoney Transfer Root Authority
================================
SHA1 Fingerprint: 76:7C:A8:69:09:10:F0:69:32:33:66:A9:C4:5D:78:6B:D1:37:17:16
PEM Data:
-----BEGIN CERTIFICATE-----
MIIEGTCCAwGgAwIBAgIQNHU6UsCDcLJD7Qw+0yqyRjANBgkqhkiG9w0BAQUFADBv
MRowGAYDVQQKExFXZWJNb25leSBUcmFuc2ZlcjEmMCQGA1UECxMdV2ViTW9uZXkg
Q2VydGlmaWNhdGlvbiBDZW50ZXIxKTAnBgNVBAMTIFdlYk1vbmV5IFRyYW5zZmVy
IFJvb3QgQXV0aG9yaXR5MB4XDTAxMDQwNDEzNDcwOVoXDTEwMDYwNzE5NDcxOFow
bzEaMBgGA1UEChMRV2ViTW9uZXkgVHJhbnNmZXIxJjAkBgNVBAsTHVdlYk1vbmV5
IENlcnRpZmljYXRpb24gQ2VudGVyMSkwJwYDVQQDEyBXZWJNb25leSBUcmFuc2Zl
ciBSb290IEF1dGhvcml0eTCCASIwDQYJKoZIhvcNAQEBBQADggEPADCCAQoCggEB
AO9V0RYrJYPCOR7odiyICWNuoZj0tN9Z1mY10s+QIYGsMZCNG0meQymt5jTuhD/E
GNAHVVR9st3C92pqy2UAvQyAxMmzg5SJbuo/39YSAqx0vEtehl4QfHWHSiFStbbt
ZslHdl1jYKLwm6B88XI3OpiAoMAccntSazvim1k18lZ2bsTJeiH4s8BLP5T0Yw+R
belHaJe1DiRWChoKqoVqsDp5mH7v0cEpD78KltHo57zUuH+rzTcTeCKkO4/9CWiF
qY2FzC09wekFJ8LZ0HMlcANdLYSvmz3Ux3BvFqy8Jyt8dBhq8MRUkzZC8Cg5/lfs
ZSMHHsr1PnsIuM0OGbb1GJMCAwEAAaOBsDCBrTALBgNVHQ8EBAMCAcYwDwYDVR0T
AQH/BAUwAwEB/zAdBgNVHQ4EFgQUy51+UX4IIMT1cJShzlLHBU0/M/MwXAYDVR0f
BFUwUzBRoE+gTYZLaHR0cDovL3d3dy53bWNlcnQuY29tL0NlcnRFbnJvbGwvV2Vi
TW9uZXklMjBUcmFuc2ZlciUyMFJvb3QlMjBBdXRob3JpdHkuY3JsMBAGCSsGAQQB
gjcVAQQDAgECMA0GCSqGSIb3DQEBBQUAA4IBAQBqGyv5FVpV4MK0VYXPFqUhsyVc
SDqM+hu4U0OA0cIKHOXRV6BcbDzsNi1+6HVA2vr9PIcIVTRlGXcU95JcQe3tjbXQ
NNMpKcgL0YMW0ifMA2qu5y6nJTIu7rKCESUtsMzQUnccaXmYn0DChYuvPObb5suf
RVlsHL9Gc90eRiR8lofaDqIM82vETsQEIj1M1ifUgD5LxZuwQ8fdESZ/GHkxCosa
9YG7WZKTMEgPSXpLmd+y24NklMi9cb+0dJce84OgMUfFAxYO71lkc0dJ5B7TJsqS
Ymwnj0x4w32Av3TiEJOQMghAJVsdPJiEzUiHMVDsAbyXQ03gZIyexFpl4QDy
-----END CERTIFICATE-----
Certificate Ingredients:
    Data:
        Version: 3 (0x2)
        Serial Number:
            34:75:3a:52:c0:83:70:b2:43:ed:0c:3e:d3:2a:b2:46
        Signature Algorithm: sha1WithRSAEncryption
        Issuer: O=WebMoney Transfer, OU=WebMoney Certification Center, CN=WebMoney Transfer Root Authority
        Validity
            Not Before: Apr  4 13:47:09 2001 GMT
            Not After : Jun  7 19:47:18 2010 GMT
        Subject: O=WebMoney Transfer, OU=WebMoney Certification Center, CN=WebMoney Transfer Root Authority
        Subject Public Key Info:
            Public Key Algorithm: rsaEncryption
            RSA Public Key: (2048 bit)
                Modulus (2048 bit):
                    00:ef:55:d1:16:2b:25:83:c2:39:1e:e8:76:2c:88:
                    09:63:6e:a1:98:f4:b4:df:59:d6:66:35:d2:cf:90:
                    21:81:ac:31:90:8d:1b:49:9e:43:29:ad:e6:34:ee:
                    84:3f:c4:18:d0:07:55:54:7d:b2:dd:c2:f7:6a:6a:
                    cb:65:00:bd:0c:80:c4:c9:b3:83:94:89:6e:ea:3f:
                    df:d6:12:02:ac:74:bc:4b:5e:86:5e:10:7c:75:87:
                    4a:21:52:b5:b6:ed:66:c9:47:76:5d:63:60:a2:f0:
                    9b:a0:7c:f1:72:37:3a:98:80:a0:c0:1c:72:7b:52:
                    6b:3b:e2:9b:59:35:f2:56:76:6e:c4:c9:7a:21:f8:
                    b3:c0:4b:3f:94:f4:63:0f:91:6d:e9:47:68:97:b5:
                    0e:24:56:0a:1a:0a:aa:85:6a:b0:3a:79:98:7e:ef:
                    d1:c1:29:0f:bf:0a:96:d1:e8:e7:bc:d4:b8:7f:ab:
                    cd:37:13:78:22:a4:3b:8f:fd:09:68:85:a9:8d:85:
                    cc:2d:3d:c1:e9:05:27:c2:d9:d0:73:25:70:03:5d:
                    2d:84:af:9b:3d:d4:c7:70:6f:16:ac:bc:27:2b:7c:
                    74:18:6a:f0:c4:54:93:36:42:f0:28:39:fe:57:ec:
                    65:23:07:1e:ca:f5:3e:7b:08:b8:cd:0e:19:b6:f5:
                    18:93
                Exponent: 65537 (0x10001)
        X509v3 extensions:
            X509v3 Key Usage: 
                Digital Signature, Non Repudiation, Certificate Sign, CRL Sign
            X509v3 Basic Constraints: critical
                CA:TRUE
            X509v3 Subject Key Identifier: 
                CB:9D:7E:51:7E:08:20:C4:F5:70:94:A1:CE:52:C7:05:4D:3F:33:F3
            X509v3 CRL Distribution Points: 
                URI:http://www.wmcert.com/CertEnroll/WebMoney%20Transfer%20Root%20Authority.crl

            1.3.6.1.4.1.311.21.1: 
                ...
    Signature Algorithm: sha1WithRSAEncryption
        6a:1b:2b:f9:15:5a:55:e0:c2:b4:55:85:cf:16:a5:21:b3:25:
        5c:48:3a:8c:fa:1b:b8:53:43:80:d1:c2:0a:1c:e5:d1:57:a0:
        5c:6c:3c:ec:36:2d:7e:e8:75:40:da:fa:fd:3c:87:08:55:34:
        65:19:77:14:f7:92:5c:41:ed:ed:8d:b5:d0:34:d3:29:29:c8:
        0b:d1:83:16:d2:27:cc:03:6a:ae:e7:2e:a7:25:32:2e:ee:b2:
        82:11:25:2d:b0:cc:d0:52:77:1c:69:79:98:9f:40:c2:85:8b:
        af:3c:e6:db:e6:cb:9f:45:59:6c:1c:bf:46:73:dd:1e:46:24:
        7c:96:87:da:0e:a2:0c:f3:6b:c4:4e:c4:04:22:3d:4c:d6:27:
        d4:80:3e:4b:c5:9b:b0:43:c7:dd:11:26:7f:18:79:31:0a:8b:
        1a:f5:81:bb:59:92:93:30:48:0f:49:7a:4b:99:df:b2:db:83:
        64:94:c8:bd:71:bf:b4:74:97:1e:f3:83:a0:31:47:c5:03:16:
        0e:ef:59:64:73:47:49:e4:1e:d3:26:ca:92:62:6c:27:8f:4c:
        78:c3:7d:80:bf:74:e2:10:93:90:32:08:40:25:5b:1d:3c:98:
        84:cd:48:87:31:50:ec:01:bc:97:43:4d:e0:64:8c:9e:c4:5a:
        65:e1:00:f2
